; Function Attrs: nounwind uwtable
define zeroext range(i8 0, 2) i8 @l_Array_anyMUnsafe_any___at_Lean_Meta_SynthInstance_isNewAnswer___spec__1(ptr noundef readonly captures(none) %0, ptr noundef readonly captures(none) %1, i64 noundef %2, i64 noundef %3) local_unnamed_addr #1 {
  %.not37 = icmp eq i64 %2, %3
  br i1 %.not37, label %lean_dec.exit._crit_edge, label %.lr.ph

.lr.ph:                                           ; preds = %4
  %5 = getelementptr inbounds nuw i8, ptr %1, i64 24
  %6 = getelementptr inbounds nuw i8, ptr %0, i64 16
  br label %9

7:                                                ; preds = %lean_dec.exit
  %8 = add i64 %.01938, 1
  %.not = icmp eq i64 %8, %3
  br i1 %.not, label %lean_dec.exit._crit_edge, label %9

9:                                                ; preds = %.lr.ph, %7
  %.01938 = phi i64 [ %2, %.lr.ph ], [ %8, %7 ]
  %10 = getelementptr inbounds nuw [0 x ptr], ptr %5, i64 0, i64 %.01938
  %11 = load ptr, ptr %10, align 8, !tbaa !9
  %12 = ptrtoint ptr %11 to i64
  %13 = and i64 %12, 1
  %.not.i27 = icmp eq i64 %13, 0
  br i1 %.not.i27, label %14, label %lean_array_uget.exit

14:                                               ; preds = %9
  %.val.i.i = load i32, ptr %11, align 4, !tbaa !4
  %15 = icmp sgt i32 %.val.i.i, 0
  br i1 %15, label %16, label %18, !prof !11

16:                                               ; preds = %14
  %17 = add nuw i32 %.val.i.i, 1
  store i32 %17, ptr %11, align 4, !tbaa !4
  br label %lean_array_uget.exit

18:                                               ; preds = %14
  %.not.i.i = icmp eq i32 %.val.i.i, 0
  br i1 %.not.i.i, label %lean_array_uget.exit, label %19

19:                                               ; preds = %18
  tail call void @lean_inc_ref_cold(ptr noundef nonnull %11) #7
  br label %lean_array_uget.exit

lean_array_uget.exit:                             ; preds = %9, %16, %18, %19
  %20 = getelementptr inbounds nuw i8, ptr %11, i64 16
  %21 = load ptr, ptr %20, align 8, !tbaa !9
  %22 = ptrtoint ptr %21 to i64
  %23 = and i64 %22, 1
  %.not35 = icmp eq i64 %23, 0
  br i1 %.not35, label %24, label %lean_inc.exit

24:                                               ; preds = %lean_array_uget.exit
  %.val.i = load i32, ptr %21, align 4, !tbaa !4
  %25 = icmp sgt i32 %.val.i, 0
  br i1 %25, label %26, label %28, !prof !11

26:                                               ; preds = %24
  %27 = add nuw i32 %.val.i, 1
  store i32 %27, ptr %21, align 4, !tbaa !4
  br label %lean_inc.exit

28:                                               ; preds = %24
  %.not.i28 = icmp eq i32 %.val.i, 0
  br i1 %.not.i28, label %lean_inc.exit, label %29

29:                                               ; preds = %28
  tail call void @lean_inc_ref_cold(ptr noundef nonnull %21) #7
  br label %lean_inc.exit

lean_inc.exit:                                    ; preds = %29, %28, %26, %lean_array_uget.exit
  br i1 %.not.i27, label %30, label %lean_dec.exit24

30:                                               ; preds = %lean_inc.exit
  %31 = load i32, ptr %11, align 4, !tbaa !4
  %32 = icmp sgt i32 %31, 1
  br i1 %32, label %33, label %35, !prof !11

33:                                               ; preds = %30
  %34 = add nsw i32 %31, -1
  store i32 %34, ptr %11, align 4, !tbaa !4
  br label %lean_dec.exit24

35:                                               ; preds = %30
  %.not.i = icmp eq i32 %31, 0
  br i1 %.not.i, label %lean_dec.exit24, label %36

36:                                               ; preds = %35
  tail call void @lean_dec_ref_cold(ptr noundef nonnull %11) #7
  br label %lean_dec.exit24

lean_dec.exit24:                                  ; preds = %36, %35, %33, %lean_inc.exit
  %37 = load ptr, ptr %6, align 8, !tbaa !9
  %38 = tail call zeroext i8 @lean_expr_eqv(ptr noundef %21, ptr noundef %37) #7
  br i1 %.not35, label %39, label %lean_dec.exit

39:                                               ; preds = %lean_dec.exit24
  %40 = load i32, ptr %21, align 4, !tbaa !4
  %41 = icmp sgt i32 %40, 1
  br i1 %41, label %42, label %44, !prof !11

42:                                               ; preds = %39
  %43 = add nsw i32 %40, -1
  store i32 %43, ptr %21, align 4, !tbaa !4
  br label %lean_dec.exit

44:                                               ; preds = %39
  %.not.i25 = icmp eq i32 %40, 0
  br i1 %.not.i25, label %lean_dec.exit, label %45

45:                                               ; preds = %44
  tail call void @lean_dec_ref_cold(ptr noundef nonnull %21) #7
  br label %lean_dec.exit

lean_dec.exit:                                    ; preds = %45, %44, %42, %lean_dec.exit24
  %46 = icmp eq i8 %38, 0
  br i1 %46, label %7, label %lean_dec.exit._crit_edge

lean_dec.exit._crit_edge:                         ; preds = %7, %lean_dec.exit, %4
  %.2.ph = phi i8 [ 0, %4 ], [ 1, %lean_dec.exit ], [ 0, %7 ]
  ret i8 %.2.ph
}